(lp0
S'19160847066539761927642172299421365099083190475580471'
p1
aS'90291066686858466238967652449999297751163447114393040079774051'
p2
aS'684760867596096753828149729492860582983551481800564399542335498695566436'
p3
aS'566287197967453944820523732229964471499630010725'
p4
aS'340919290248499958759540306362879405384119668928652204133165207945164342'
p5
aS'83921078751692397945941338862113161464710243776438140885479728'
p6
aS'36372718921657124851579163860366736541736678452443448'
p7
aS'2383722058289112296866846004736349851079292751675450929465'
p8
aS'5707588740094256329952318018667092670903346804425841242221401563955'
p9
aS'70746063113170322770963787146331437107'
p10
aS'2457376201764944568102049738195654858403970563305855531058'
p11
aS'80655760138707884835093505458091193299316081958208366534080560'
p12
a.